target datalayout = "e-m:e-p270:32:32-p271:32:32-p272:64:64-i64:64-i128:128-f80:128-n8:16:32:64-S128"
target triple = "x86_64-pc-linux-gnu"

%struct.err_state_st = type { [16 x i32], [16 x i32], [16 x i64], [16 x ptr], [16 x i64], [16 x i32], [16 x ptr], [16 x i32], [16 x ptr], i32, i32 }

; Function Attrs: nounwind uwtable
define i32 @ERR_count_to_mark() #0 {
  %1 = alloca i32, align 4
  %2 = alloca ptr, align 8
  %3 = alloca i32, align 4
  %4 = alloca i32, align 4
  %5 = alloca i32, align 4
  call void @llvm.lifetime.start.p0(i64 8, ptr %2) #4
  call void @llvm.lifetime.start.p0(i64 4, ptr %3) #4
  store i32 0, ptr %3, align 4, !tbaa !12
  call void @llvm.lifetime.start.p0(i64 4, ptr %4) #4
  %6 = call ptr @ossl_err_get_state_int()
  store ptr %6, ptr %2, align 8, !tbaa !3
  %7 = load ptr, ptr %2, align 8, !tbaa !3
  %8 = icmp eq ptr %7, null
  br i1 %8, label %9, label %10

9:                                                ; preds = %0
  store i32 0, ptr %1, align 4
  store i32 1, ptr %5, align 4
  br label %43

10:                                               ; preds = %0
  %11 = load ptr, ptr %2, align 8, !tbaa !3
  %12 = getelementptr inbounds nuw %struct.err_state_st, ptr %11, i32 0, i32 9
  %13 = load i32, ptr %12, align 8, !tbaa !11
  store i32 %13, ptr %4, align 4, !tbaa !12
  br label %14

14:                                               ; preds = %39, %10
  %15 = load ptr, ptr %2, align 8, !tbaa !3
  %16 = getelementptr inbounds nuw %struct.err_state_st, ptr %15, i32 0, i32 10
  %17 = load i32, ptr %16, align 4, !tbaa !8
  %18 = load i32, ptr %4, align 4, !tbaa !12
  %19 = icmp ne i32 %17, %18
  br i1 %19, label %20, label %28

20:                                               ; preds = %14
  %21 = load ptr, ptr %2, align 8, !tbaa !3
  %22 = getelementptr inbounds nuw %struct.err_state_st, ptr %21, i32 0, i32 1
  %23 = load i32, ptr %4, align 4, !tbaa !12
  %24 = sext i32 %23 to i64
  %25 = getelementptr inbounds [16 x i32], ptr %22, i64 0, i64 %24
  %26 = load i32, ptr %25, align 4, !tbaa !12
  %27 = icmp eq i32 %26, 0
  br label %28

28:                                               ; preds = %20, %14
  %29 = phi i1 [ false, %14 ], [ %27, %20 ]
  br i1 %29, label %30, label %41

30:                                               ; preds = %28
  %31 = load i32, ptr %3, align 4, !tbaa !12
  %32 = add nsw i32 %31, 1
  store i32 %32, ptr %3, align 4, !tbaa !12
  %33 = load i32, ptr %4, align 4, !tbaa !12
  %34 = icmp sgt i32 %33, 0
  br i1 %34, label %35, label %38

35:                                               ; preds = %30
  %36 = load i32, ptr %4, align 4, !tbaa !12
  %37 = sub nsw i32 %36, 1
  br label %39

38:                                               ; preds = %30
  br label %39

39:                                               ; preds = %38, %35
  %40 = phi i32 [ %37, %35 ], [ 15, %38 ]
  store i32 %40, ptr %4, align 4, !tbaa !12
  br label %14, !llvm.loop !19

41:                                               ; preds = %28
  %42 = load i32, ptr %3, align 4, !tbaa !12
  store i32 %42, ptr %1, align 4
  store i32 1, ptr %5, align 4
  br label %43

43:                                               ; preds = %41, %9
  call void @llvm.lifetime.end.p0(i64 4, ptr %4) #4
  call void @llvm.lifetime.end.p0(i64 4, ptr %3) #4
  call void @llvm.lifetime.end.p0(i64 8, ptr %2) #4
  %44 = load i32, ptr %1, align 4
  ret i32 %44
}