; Function Attrs: nounwind uwtable
define i32 @ERR_count_to_mark() local_unnamed_addr #0 {
  %1 = tail call ptr @ossl_err_get_state_int() #2
  %2 = icmp eq ptr %1, null
  br i1 %2, label %.critedge, label %3

3:                                                ; preds = %0
  %4 = getelementptr inbounds nuw i8, ptr %1, i64 896
  %5 = load i32, ptr %4, align 8, !tbaa !8
  %6 = getelementptr inbounds nuw i8, ptr %1, i64 64
  %7 = getelementptr inbounds nuw i8, ptr %1, i64 900
  %8 = load i32, ptr %7, align 4, !tbaa !3
  %.not13 = icmp eq i32 %8, %5
  br i1 %.not13, label %.critedge, label %.lr.ph

.lr.ph:                                           ; preds = %3, %13
  %.015 = phi i32 [ %17, %13 ], [ %5, %3 ]
  %.01014 = phi i32 [ %14, %13 ], [ 0, %3 ]
  %9 = sext i32 %.015 to i64
  %10 = getelementptr inbounds [16 x i32], ptr %6, i64 0, i64 %9
  %11 = load i32, ptr %10, align 4, !tbaa !9
  %12 = icmp eq i32 %11, 0
  br i1 %12, label %13, label %.critedge

13:                                               ; preds = %.lr.ph
  %14 = add nuw nsw i32 %.01014, 1
  %15 = icmp sgt i32 %.015, 0
  %16 = add nsw i32 %.015, -1
  %17 = select i1 %15, i32 %16, i32 15
  %.not = icmp eq i32 %8, %17
  br i1 %.not, label %.critedge, label %.lr.ph, !llvm.loop !18

.critedge:                                        ; preds = %13, %.lr.ph, %3, %0
  %.011 = phi i32 [ 0, %0 ], [ 0, %3 ], [ %14, %13 ], [ %.01014, %.lr.ph ]
  ret i32 %.011
}